target datalayout = "e-m:e-p270:32:32-p271:32:32-p272:64:64-i64:64-i128:128-f80:128-n8:16:32:64-S128"
target triple = "x86_64-unknown-linux-gnu"

%struct.arena_config_s = type { ptr, i8 }
%struct.malloc_mutex_s = type { %union.anon }
%union.anon = type { %struct.anon.1 }
%struct.anon.1 = type { %struct.mutex_prof_data_t, %union.pthread_mutex_t, %struct.atomic_b_t }
%struct.mutex_prof_data_t = type { %struct.nstime_t, %struct.nstime_t, i64, i64, i32, %struct.atomic_u32_t, i64, ptr, i64 }
%struct.nstime_t = type { i64 }
%struct.atomic_u32_t = type { i32 }
%union.pthread_mutex_t = type { %struct.__pthread_mutex_s }
%struct.__pthread_mutex_s = type { i32, i32, i32, i32, i32, i16, i16, %struct.__pthread_internal_list }
%struct.__pthread_internal_list = type { ptr, ptr }
%struct.atomic_b_t = type { i8 }
%struct.atomic_p_t = type { ptr }
%struct.atomic_zd_t = type { i64 }
%struct.hpa_shard_opts_s = type { i64, i64, i32, i8, i64, i64 }
%struct.sec_opts_s = type { i64, i64, i64, i64, i64 }
%struct.arena_s = type { [2 x %struct.atomic_u_t], %struct.atomic_u_t, ptr, %struct.arena_stats_s, %struct.anon, %struct.anon.0, %struct.malloc_mutex_s, %struct.atomic_u_t, %struct.edata_list_active_t, %struct.malloc_mutex_s, %struct.pa_shard_s, i32, ptr, %struct.nstime_t, [0 x %struct.bin_s] }
%struct.arena_stats_s = type { i64, i64, i64, i64, %struct.atomic_zu_t, i64, i64, i64, i64, i64, i64, %struct.pa_shard_stats_s, i64, i64, [12 x %struct.mutex_prof_data_t], [196 x %struct.arena_stats_large_s], %struct.nstime_t }
%struct.atomic_zu_t = type { i64 }
%struct.pa_shard_stats_s = type { i64, %struct.pac_stats_s }
%struct.pac_stats_s = type { %struct.pac_decay_stats_s, %struct.pac_decay_stats_s, i64, %struct.atomic_zu_t, %struct.atomic_zu_t }
%struct.pac_decay_stats_s = type { %struct.locked_u64_s, %struct.locked_u64_s, %struct.locked_u64_s }
%struct.locked_u64_s = type { %struct.atomic_u64_t }
%struct.atomic_u64_t = type { i64 }
%struct.arena_stats_large_s = type { %struct.locked_u64_s, %struct.locked_u64_s, %struct.locked_u64_s, %struct.locked_u64_s, %struct.locked_u64_s, i64 }
%struct.anon = type { ptr }
%struct.anon.0 = type { ptr }
%struct.atomic_u_t = type { i32 }
%struct.edata_list_active_t = type { %struct.anon.3 }
%struct.anon.3 = type { ptr }
%struct.pa_shard_s = type { ptr, %struct.atomic_zu_t, %struct.atomic_b_t, i8, %struct.pac_s, %struct.sec_s, %struct.hpa_shard_s, %struct.edata_cache_s, i32, ptr, ptr, ptr, ptr }
%struct.pac_s = type { %struct.pai_s, %struct.ecache_s, %struct.ecache_s, %struct.ecache_s, ptr, ptr, ptr, %struct.exp_grow_s, %struct.malloc_mutex_s, %struct.san_bump_alloc_s, %struct.atomic_zu_t, %struct.decay_s, %struct.decay_s, ptr, ptr, %struct.atomic_zu_t }
%struct.pai_s = type { ptr, ptr, ptr, ptr, ptr, ptr, ptr }
%struct.ecache_s = type { %struct.malloc_mutex_s, %struct.eset_s, %struct.eset_s, i32, i32, i8 }
%struct.eset_s = type { [4 x i64], [200 x %struct.eset_bin_s], [200 x %struct.eset_bin_stats_s], %struct.edata_list_inactive_t, %struct.atomic_zu_t, i32 }
%struct.eset_bin_s = type { %struct.edata_heap_t, %struct.edata_cmp_summary_s }
%struct.edata_heap_t = type { %struct.ph_s }
%struct.ph_s = type { ptr, i64 }
%struct.edata_cmp_summary_s = type { i64, i64 }
%struct.eset_bin_stats_s = type { %struct.atomic_zu_t, %struct.atomic_zu_t }
%struct.edata_list_inactive_t = type { %struct.anon.4 }
%struct.anon.4 = type { ptr }
%struct.exp_grow_s = type { i32, i32 }
%struct.san_bump_alloc_s = type { %struct.malloc_mutex_s, ptr }
%struct.decay_s = type { %struct.malloc_mutex_s, i8, %struct.atomic_zd_t, %struct.nstime_t, %struct.nstime_t, i64, %struct.nstime_t, i64, i64, [200 x i64], i64 }
%struct.sec_s = type { %struct.pai_s, ptr, %struct.sec_opts_s, ptr, i32 }
%struct.hpa_shard_s = type { %struct.pai_s, ptr, %struct.malloc_mutex_s, %struct.malloc_mutex_s, ptr, %struct.edata_cache_fast_s, %struct.psset_s, i64, i32, ptr, %struct.hpa_shard_opts_s, i64, %struct.hpa_shard_nonderived_stats_s, %struct.nstime_t }
%struct.edata_cache_fast_s = type { %struct.edata_list_inactive_t, ptr, i8 }
%struct.psset_s = type { [64 x %struct.hpdata_age_heap_t], [1 x i64], %struct.psset_bin_stats_s, %struct.psset_stats_s, %struct.hpdata_empty_list_t, [128 x %struct.hpdata_purge_list_t], [2 x i64], %struct.hpdata_hugify_list_t }
%struct.hpdata_age_heap_t = type { %struct.ph_s }
%struct.psset_bin_stats_s = type { i64, i64, i64 }
%struct.psset_stats_s = type { [64 x [2 x %struct.psset_bin_stats_s]], [2 x %struct.psset_bin_stats_s], [2 x %struct.psset_bin_stats_s] }
%struct.hpdata_empty_list_t = type { %struct.anon.5 }
%struct.anon.5 = type { ptr }
%struct.hpdata_purge_list_t = type { %struct.anon.6 }
%struct.anon.6 = type { ptr }
%struct.hpdata_hugify_list_t = type { %struct.anon.7 }
%struct.anon.7 = type { ptr }
%struct.hpa_shard_nonderived_stats_s = type { i64, i64, i64, i64 }
%struct.edata_cache_s = type { %struct.edata_avail_t, %struct.atomic_zu_t, %struct.malloc_mutex_s, ptr }
%struct.edata_avail_t = type { %struct.ph_s }
%struct.bin_s = type { %struct.malloc_mutex_s, %struct.bin_stats_s, ptr, %struct.edata_heap_t, %struct.edata_list_active_t }
%struct.bin_stats_s = type { i64, i64, i64, i64, i64, i64, i64, i64, i64, i64 }
%struct.cache_bin_array_descriptor_s = type { %struct.anon.8, ptr }
%struct.anon.8 = type { ptr, ptr }
%struct.cache_bin_s = type { ptr, %struct.cache_bin_stats_s, i16, i16, i16 }
%struct.cache_bin_stats_s = type { i64 }
%struct.tsd_s = type { i8, i8, i64, i64, i64, i64, i64, i64, i64, i64, i64, i64, i64, i64, ptr, i64, i64, i64, ptr, ptr, %struct.ticker_geom_s, i8, %struct.tsd_binshards_s, %struct.tsd_link_t, i8, %struct.peak_s, %struct.activity_callback_thunk_s, %struct.tcache_slow_s, %struct.rtree_ctx_s, %struct.atomic_u8_t, i64, i64, i64, i64, %struct.tcache_s, %struct.witness_tsd_s }
%struct.ticker_geom_s = type { i32, i32 }
%struct.tsd_binshards_s = type { [39 x i8] }
%struct.tsd_link_t = type { ptr, ptr }
%struct.peak_s = type { i64, i64 }
%struct.activity_callback_thunk_s = type { ptr, ptr }
%struct.tcache_slow_s = type { %struct.anon.10, %struct.cache_bin_array_descriptor_s, ptr, i32, [39 x i8], [39 x i8], [39 x i8], ptr, ptr }
%struct.anon.10 = type { ptr, ptr }
%struct.rtree_ctx_s = type { [16 x %struct.rtree_ctx_cache_elm_s], [8 x %struct.rtree_ctx_cache_elm_s] }
%struct.rtree_ctx_cache_elm_s = type { i64, ptr }
%struct.atomic_u8_t = type { i8 }
%struct.tcache_s = type { ptr, [76 x %struct.cache_bin_s] }
%struct.witness_tsd_s = type { %struct.witness_list_t, i8 }
%struct.witness_list_t = type { ptr }

@arena_config_default = hidden constant %struct.arena_config_s { ptr @ehooks_default_extent_hooks, i8 1 }, align 8
@arenas = external global [0 x %struct.atomic_p_t], align 8

; Function Attrs: nounwind uwtable
define internal ptr @arena_get(ptr noundef %tsdn, i32 noundef %ind, i1 noundef zeroext %init_if_missing) #0 {
entry:
  %retval.i.i = alloca i32, align 4
  %mo.addr.i.i = alloca i32, align 4
  %a.addr.i = alloca ptr, align 8
  %mo.addr.i = alloca i32, align 4
  %result.i = alloca ptr, align 8
  %tsdn.addr = alloca ptr, align 8
  %ind.addr = alloca i32, align 4
  %init_if_missing.addr = alloca i8, align 1
  %ret = alloca ptr, align 8
  store ptr %tsdn, ptr %tsdn.addr, align 8
  store i32 %ind, ptr %ind.addr, align 4
  %frombool = zext i1 %init_if_missing to i8
  store i8 %frombool, ptr %init_if_missing.addr, align 1
  br label %do.body

do.body:                                          ; preds = %entry
  br label %do.end

do.end:                                           ; preds = %do.body
  %0 = load i32, ptr %ind.addr, align 4
  %idxprom = zext i32 %0 to i64
  %arrayidx = getelementptr inbounds [0 x %struct.atomic_p_t], ptr @arenas, i64 0, i64 %idxprom
  store ptr %arrayidx, ptr %a.addr.i, align 8
  store i32 1, ptr %mo.addr.i, align 4
  %1 = load ptr, ptr %a.addr.i, align 8
  %2 = load i32, ptr %mo.addr.i, align 4
  store i32 %2, ptr %mo.addr.i.i, align 4
  %3 = load i32, ptr %mo.addr.i.i, align 4
  switch i32 %3, label %sw.epilog.i.i [
    i32 0, label %sw.bb.i.i
    i32 1, label %sw.bb1.i.i
    i32 2, label %sw.bb2.i.i
    i32 3, label %sw.bb3.i.i
    i32 4, label %sw.bb4.i.i
  ]

sw.bb.i.i:                                        ; preds = %do.end
  store i32 0, ptr %retval.i.i, align 4
  br label %atomic_enum_to_builtin.exit.i

sw.bb1.i.i:                                       ; preds = %do.end
  store i32 2, ptr %retval.i.i, align 4
  br label %atomic_enum_to_builtin.exit.i

sw.bb2.i.i:                                       ; preds = %do.end
  store i32 3, ptr %retval.i.i, align 4
  br label %atomic_enum_to_builtin.exit.i

sw.bb3.i.i:                                       ; preds = %do.end
  store i32 4, ptr %retval.i.i, align 4
  br label %atomic_enum_to_builtin.exit.i

sw.bb4.i.i:                                       ; preds = %do.end
  store i32 5, ptr %retval.i.i, align 4
  br label %atomic_enum_to_builtin.exit.i

sw.epilog.i.i:                                    ; preds = %do.end
  unreachable

atomic_enum_to_builtin.exit.i:                    ; preds = %sw.bb4.i.i, %sw.bb3.i.i, %sw.bb2.i.i, %sw.bb1.i.i, %sw.bb.i.i
  %4 = load i32, ptr %retval.i.i, align 4
  switch i32 %4, label %monotonic.i [
    i32 1, label %acquire.i
    i32 2, label %acquire.i
    i32 5, label %seqcst.i
  ]

monotonic.i:                                      ; preds = %atomic_enum_to_builtin.exit.i
  %5 = load atomic i64, ptr %1 monotonic, align 8
  store i64 %5, ptr %result.i, align 8
  br label %atomic_load_p.exit

acquire.i:                                        ; preds = %atomic_enum_to_builtin.exit.i, %atomic_enum_to_builtin.exit.i
  %6 = load atomic i64, ptr %1 acquire, align 8
  store i64 %6, ptr %result.i, align 8
  br label %atomic_load_p.exit

seqcst.i:                                         ; preds = %atomic_enum_to_builtin.exit.i
  %7 = load atomic i64, ptr %1 seq_cst, align 8
  store i64 %7, ptr %result.i, align 8
  br label %atomic_load_p.exit

atomic_load_p.exit:                               ; preds = %seqcst.i, %acquire.i, %monotonic.i
  %8 = load ptr, ptr %result.i, align 8
  store ptr %8, ptr %ret, align 8
  %9 = load ptr, ptr %ret, align 8
  %cmp = icmp eq ptr %9, null
  %lnot = xor i1 %cmp, true
  %lnot1 = xor i1 %lnot, true
  %lnot.ext = zext i1 %lnot1 to i32
  %conv = sext i32 %lnot.ext to i64
  %tobool = icmp ne i64 %conv, 0
  br i1 %tobool, label %if.then, label %if.end5

if.then:                                          ; preds = %atomic_load_p.exit
  %10 = load i8, ptr %init_if_missing.addr, align 1
  %tobool2 = trunc i8 %10 to i1
  br i1 %tobool2, label %if.then3, label %if.end

if.then3:                                         ; preds = %if.then
  %11 = load ptr, ptr %tsdn.addr, align 8
  %12 = load i32, ptr %ind.addr, align 4
  %call4 = call ptr @arena_init(ptr noundef %11, i32 noundef %12, ptr noundef @arena_config_default)
  store ptr %call4, ptr %ret, align 8
  br label %if.end

if.end:                                           ; preds = %if.then3, %if.then
  br label %if.end5

if.end5:                                          ; preds = %if.end, %atomic_load_p.exit
  %13 = load ptr, ptr %ret, align 8
  ret ptr %13
}

; Function Attrs: nounwind uwtable
define internal i32 @arena_ind_get(ptr noundef %arena) #0 {
entry:
  %arena.addr = alloca ptr, align 8
  store ptr %arena, ptr %arena.addr, align 8
  %0 = load ptr, ptr %arena.addr, align 8
  %ind = getelementptr inbounds %struct.arena_s, ptr %0, i32 0, i32 11
  %1 = load i32, ptr %ind, align 8
  ret i32 %1
}

; Function Attrs: nounwind uwtable
define internal void @percpu_arena_update(ptr noundef %tsd, i32 noundef %cpu) #0 {
entry:
  %tsd.addr.i11.i = alloca ptr, align 8
  %tsd.addr.i10.i = alloca ptr, align 8
  %tsd.addr.i.i5.i = alloca ptr, align 8
  %tsd.addr.i6.i = alloca ptr, align 8
  %state.i7.i = alloca i8, align 1
  %tsd.addr.i3.i = alloca ptr, align 8
  %tsd.addr.i.i.i = alloca ptr, align 8
  %tsd.addr.i2.i = alloca ptr, align 8
  %state.i.i23 = alloca i8, align 1
  %retval.i.i = alloca i1, align 1
  %tsd.addr.i.i24 = alloca ptr, align 8
  %retval.i = alloca ptr, align 8
  %tsd.addr.i25 = alloca ptr, align 8
  %tsd.addr.i22 = alloca ptr, align 8
  %tsd.addr.i.i18 = alloca ptr, align 8
  %tsd.addr.i19 = alloca ptr, align 8
  %state.i20 = alloca i8, align 1
  %tsd.addr.i17 = alloca ptr, align 8
  %tsd.addr.i.i = alloca ptr, align 8
  %tsd.addr.i16 = alloca ptr, align 8
  %state.i = alloca i8, align 1
  %tsd.addr.i15 = alloca ptr, align 8
  %tsd.addr.i14 = alloca ptr, align 8
  %tsd.addr.i = alloca ptr, align 8
  %tsd.addr = alloca ptr, align 8
  %cpu.addr = alloca i32, align 4
  %oldarena = alloca ptr, align 8
  %oldind = alloca i32, align 4
  %newind = alloca i32, align 4
  %newarena = alloca ptr, align 8
  %tcache = alloca ptr, align 8
  %tcache_slow = alloca ptr, align 8
  store ptr %tsd, ptr %tsd.addr, align 8
  store i32 %cpu, ptr %cpu.addr, align 4
  br label %do.body

do.body:                                          ; preds = %entry
  br label %do.end

do.end:                                           ; preds = %do.body
  %0 = load ptr, ptr %tsd.addr, align 8
  store ptr %0, ptr %tsd.addr.i15, align 8
  %1 = load ptr, ptr %tsd.addr.i15, align 8
  store ptr %1, ptr %tsd.addr.i16, align 8
  %2 = load ptr, ptr %tsd.addr.i16, align 8
  store ptr %2, ptr %tsd.addr.i.i, align 8
  %3 = load ptr, ptr %tsd.addr.i.i, align 8
  %state.i.i = getelementptr inbounds %struct.tsd_s, ptr %3, i32 0, i32 29
  %4 = load i8, ptr %state.i.i, align 8
  store i8 %4, ptr %state.i, align 1
  %5 = load ptr, ptr %tsd.addr.i16, align 8
  store ptr %5, ptr %tsd.addr.i17, align 8
  %6 = load ptr, ptr %tsd.addr.i17, align 8
  %cant_access_tsd_items_directly_use_a_getter_or_setter_arena.i = getelementptr inbounds %struct.tsd_s, ptr %6, i32 0, i32 19
  %7 = load ptr, ptr %cant_access_tsd_items_directly_use_a_getter_or_setter_arena.i, align 8
  store ptr %7, ptr %oldarena, align 8
  br label %do.body1

do.body1:                                         ; preds = %do.end
  br label %do.end2

do.end2:                                          ; preds = %do.body1
  %8 = load ptr, ptr %oldarena, align 8
  %call3 = call i32 @arena_ind_get(ptr noundef %8)
  store i32 %call3, ptr %oldind, align 4
  %9 = load i32, ptr %oldind, align 4
  %10 = load i32, ptr %cpu.addr, align 4
  %cmp = icmp ne i32 %9, %10
  br i1 %cmp, label %if.then, label %if.end13

if.then:                                          ; preds = %do.end2
  %11 = load i32, ptr %cpu.addr, align 4
  store i32 %11, ptr %newind, align 4
  %12 = load ptr, ptr %tsd.addr, align 8
  store ptr %12, ptr %tsd.addr.i14, align 8
  %13 = load ptr, ptr %tsd.addr.i14, align 8
  %14 = load i32, ptr %newind, align 4
  %call5 = call ptr @arena_get(ptr noundef %13, i32 noundef %14, i1 noundef zeroext true)
  store ptr %call5, ptr %newarena, align 8
  br label %do.body6

do.body6:                                         ; preds = %if.then
  br label %do.end7

do.end7:                                          ; preds = %do.body6
  %15 = load ptr, ptr %tsd.addr, align 8
  %16 = load ptr, ptr %oldarena, align 8
  %17 = load ptr, ptr %newarena, align 8
  call void @arena_migrate(ptr noundef %15, ptr noundef %16, ptr noundef %17)
  %18 = load ptr, ptr %tsd.addr, align 8
  store ptr %18, ptr %tsd.addr.i25, align 8
  %19 = load ptr, ptr %tsd.addr.i25, align 8
  store ptr %19, ptr %tsd.addr.i.i24, align 8
  %20 = load ptr, ptr %tsd.addr.i.i24, align 8
  store ptr %20, ptr %tsd.addr.i3.i, align 8
  %21 = load ptr, ptr %tsd.addr.i3.i, align 8
  store ptr %21, ptr %tsd.addr.i6.i, align 8
  %22 = load ptr, ptr %tsd.addr.i6.i, align 8
  store ptr %22, ptr %tsd.addr.i.i5.i, align 8
  %23 = load ptr, ptr %tsd.addr.i.i5.i, align 8
  %state.i.i8.i = getelementptr inbounds %struct.tsd_s, ptr %23, i32 0, i32 29
  %24 = load i8, ptr %state.i.i8.i, align 8
  store i8 %24, ptr %state.i7.i, align 1
  %25 = load ptr, ptr %tsd.addr.i6.i, align 8
  store ptr %25, ptr %tsd.addr.i10.i, align 8
  %26 = load ptr, ptr %tsd.addr.i10.i, align 8
  %27 = load i8, ptr %26, align 1
  %tobool.i.i = trunc i8 %27 to i1
  br i1 %tobool.i.i, label %if.then.i.i, label %if.end.i.i

if.then.i.i:                                      ; preds = %do.end7
  store i1 true, ptr %retval.i.i, align 1
  br label %tcache_available.exit.i

if.end.i.i:                                       ; preds = %do.end7
  store i1 false, ptr %retval.i.i, align 1
  br label %tcache_available.exit.i

tcache_available.exit.i:                          ; preds = %if.end.i.i, %if.then.i.i
  %28 = load i1, ptr %retval.i.i, align 1
  br i1 %28, label %if.end.i, label %if.then.i

if.then.i:                                        ; preds = %tcache_available.exit.i
  store ptr null, ptr %retval.i, align 8
  br label %tcache_get.exit

if.end.i:                                         ; preds = %tcache_available.exit.i
  %29 = load ptr, ptr %tsd.addr.i25, align 8
  store ptr %29, ptr %tsd.addr.i2.i, align 8
  %30 = load ptr, ptr %tsd.addr.i2.i, align 8
  store ptr %30, ptr %tsd.addr.i.i.i, align 8
  %31 = load ptr, ptr %tsd.addr.i.i.i, align 8
  %state.i.i.i = getelementptr inbounds %struct.tsd_s, ptr %31, i32 0, i32 29
  %32 = load i8, ptr %state.i.i.i, align 8
  store i8 %32, ptr %state.i.i23, align 1
  %33 = load ptr, ptr %tsd.addr.i2.i, align 8
  store ptr %33, ptr %tsd.addr.i11.i, align 8
  %34 = load ptr, ptr %tsd.addr.i11.i, align 8
  %cant_access_tsd_items_directly_use_a_getter_or_setter_tcache.i.i = getelementptr inbounds %struct.tsd_s, ptr %34, i32 0, i32 34
  store ptr %cant_access_tsd_items_directly_use_a_getter_or_setter_tcache.i.i, ptr %retval.i, align 8
  br label %tcache_get.exit

tcache_get.exit:                                  ; preds = %if.end.i, %if.then.i
  %35 = load ptr, ptr %retval.i, align 8
  store ptr %35, ptr %tcache, align 8
  %36 = load ptr, ptr %tcache, align 8
  %cmp9 = icmp ne ptr %36, null
  br i1 %cmp9, label %if.then10, label %if.end

if.then10:                                        ; preds = %tcache_get.exit
  %37 = load ptr, ptr %tsd.addr, align 8
  store ptr %37, ptr %tsd.addr.i19, align 8
  %38 = load ptr, ptr %tsd.addr.i19, align 8
  store ptr %38, ptr %tsd.addr.i.i18, align 8
  %39 = load ptr, ptr %tsd.addr.i.i18, align 8
  %state.i.i21 = getelementptr inbounds %struct.tsd_s, ptr %39, i32 0, i32 29
  %40 = load i8, ptr %state.i.i21, align 8
  store i8 %40, ptr %state.i20, align 1
  %41 = load ptr, ptr %tsd.addr.i19, align 8
  store ptr %41, ptr %tsd.addr.i22, align 8
  %42 = load ptr, ptr %tsd.addr.i22, align 8
  %cant_access_tsd_items_directly_use_a_getter_or_setter_tcache_slow.i = getelementptr inbounds %struct.tsd_s, ptr %42, i32 0, i32 27
  store ptr %cant_access_tsd_items_directly_use_a_getter_or_setter_tcache_slow.i, ptr %tcache_slow, align 8
  %43 = load ptr, ptr %tsd.addr, align 8
  store ptr %43, ptr %tsd.addr.i, align 8
  %44 = load ptr, ptr %tsd.addr.i, align 8
  %45 = load ptr, ptr %tcache_slow, align 8
  %46 = load ptr, ptr %tcache, align 8
  %47 = load ptr, ptr %newarena, align 8
  call void @tcache_arena_reassociate(ptr noundef %44, ptr noundef %45, ptr noundef %46, ptr noundef %47)
  br label %if.end

if.end:                                           ; preds = %if.then10, %tcache_get.exit
  br label %if.end13

if.end13:                                         ; preds = %if.end, %do.end2
  ret void
}